; Function Attrs: mustprogress nounwind uwtable
define hidden noundef zeroext i1 @_ZN8ciMethod18ensure_method_dataERK12methodHandle(ptr nocapture noundef nonnull align 8 dereferenceable(160) %0, ptr noundef nonnull align 8 dereferenceable(16) %1) local_unnamed_addr #0 align 2 {
  %3 = tail call align 8 ptr @llvm.threadlocal.address.p0(ptr align 8 @_ZN6Thread12_thr_currentE)
  %4 = load ptr, ptr %3, align 8
  %5 = getelementptr inbounds i8, ptr %0, i64 24
  %.sroa.0.0.copyload.i.i = load i64, ptr %5, align 8
  %6 = and i64 %.sroa.0.0.copyload.i.i, 1280
  %or.cond.not = icmp eq i64 %6, 0
  br i1 %or.cond.not, label %7, label %33

7:                                                ; preds = %2
  %8 = load ptr, ptr %1, align 8
  %9 = tail call noundef zeroext i1 @_ZNK6Method11is_accessorEv(ptr noundef nonnull align 8 dereferenceable(88) %8) #14
  br i1 %9, label %33, label %10

10:                                               ; preds = %7
  %11 = load ptr, ptr %1, align 8
  %12 = getelementptr inbounds i8, ptr %11, i64 16
  %13 = load ptr, ptr %12, align 8
  %14 = icmp eq ptr %13, null
  br i1 %14, label %15, label %19

15:                                               ; preds = %10
  tail call void @_ZN6Method27build_profiling_method_dataERK12methodHandleP10JavaThread(ptr noundef nonnull align 8 dereferenceable(16) %1, ptr noundef %4) #14
  %16 = getelementptr inbounds i8, ptr %4, i64 8
  %17 = load ptr, ptr %16, align 8
  %.not13 = icmp eq ptr %17, null
  br i1 %.not13, label %19, label %18

18:                                               ; preds = %15
  tail call void @_ZN12ThreadShadow23clear_pending_exceptionEv(ptr noundef nonnull align 8 dereferenceable(28) %4) #14
  br label %19

19:                                               ; preds = %15, %18, %10
  %20 = load ptr, ptr %1, align 8
  %21 = getelementptr inbounds i8, ptr %20, i64 16
  %22 = load ptr, ptr %21, align 8
  %.not = icmp eq ptr %22, null
  %23 = load ptr, ptr %3, align 8
  %24 = getelementptr inbounds i8, ptr %23, i64 1808
  %25 = load ptr, ptr %24, align 8
  %26 = getelementptr inbounds i8, ptr %25, i64 56
  %27 = load ptr, ptr %26, align 8
  %28 = getelementptr inbounds i8, ptr %0, i64 56
  br i1 %.not, label %31, label %_ZN5ciEnv15get_method_dataEP10MethodData.exit

_ZN5ciEnv15get_method_dataEP10MethodData.exit:    ; preds = %19
  %29 = tail call noundef ptr @_ZN15ciObjectFactory12get_metadataEP8Metadata(ptr noundef nonnull align 8 dereferenceable(652) %27, ptr noundef nonnull %22) #14
  store ptr %29, ptr %28, align 8
  %30 = tail call noundef zeroext i1 @_ZN12ciMethodData9load_dataEv(ptr noundef nonnull align 8 dereferenceable(176) %29) #14
  br label %33

31:                                               ; preds = %19
  %32 = tail call noundef ptr @_ZN15ciObjectFactory20get_empty_methodDataEv(ptr noundef nonnull align 8 dereferenceable(652) %27) #14
  store ptr %32, ptr %28, align 8
  br label %33

33:                                               ; preds = %2, %7, %31, %_ZN5ciEnv15get_method_dataEP10MethodData.exit
  %.0 = phi i1 [ %30, %_ZN5ciEnv15get_method_dataEP10MethodData.exit ], [ false, %31 ], [ true, %7 ], [ true, %2 ]
  ret i1 %.0
}